(dp0
S'cons'
p1
(dp2
S'Friandise'
p3
(dp4
S'px'
p5
F0.8
sS'tot'
p6
I0
ssS'Bi\xc3\xa8re'
p7
(dp8
g5
F0.8
sg6
I0
ssS'Soft'
p9
(dp10
g5
F0.8
sg6
I0
ssS'Caf\xc3\xa9'
p11
(dp12
g5
F0.5
sg6
I0
sssS'n'
p13
I4
s.