(dp0
S'cons'
p1
(dp2
S'Friandise'
p3
(dp4
S'px'
p5
F0.8
sS'tot'
p6
I0
ssS'Caf\xc3\xa9'
p7
(dp8
g5
F0.5
sg6
I0
ssS'Soft'
p9
(dp10
g5
F0.8
sg6
I0
ssS'Quart\nde f\xc3\xbbt'
p11
(dp12
g5
I20
sg6
I1
ssS'Bi\xc3\xa8re'
p13
(dp14
g5
F0.8
sg6
I0
sssS'n'
p15
I5
s.