(dp0
S'pers'
p1
(lp2
(dp3
S'lst'
p4
S'Ababou'
p5
sS'solde'
p6
F7.2
sS'cns'
p7
I0
sa(dp8
g4
S'Algeri'
p9
sg6
F1.4
sg7
I0
sa(dp10
g4
S'Aniort'
p11
sg6
F25.7
sg7
I0
sa(dp12
g4
S'Bonami'
p13
sg6
F4.4
sg7
I0
sa(dp14
g4
S'Borrien'
p15
sg6
F114.9
sg7
I0
sa(dp16
g4
S'Bouchareissas'
p17
sg6
F72.6
sg7
I0
sa(dp18
g4
S'Boulant'
p19
sg6
F-80.2
sg7
I0
sa(dp20
g4
S'Burdin'
p21
sg6
F26.4
sg7
I0
sa(dp22
g4
S'Chamorel'
p23
sg6
F-51.0
sg7
I0
sa(dp24
g4
S'Cobo'
p25
sg6
F-1.9
sg7
I0
sa(dp26
g4
S'Collin'
p27
sg6
F57.2
sg7
I0
sa(dp28
g4
S'Delattre'
p29
sg6
F0.4
sg7
I0
sa(dp30
g4
S'Desvignes'
p31
sg6
F-107.2
sg7
I0
sa(dp32
g4
S'Dufourneau'
p33
sg6
F24.1
sg7
I0
sa(dp34
g4
S'Duguet'
p35
sg6
F-70.8
sg7
I0
sa(dp36
g4
S'Duval'
p37
sg6
F29.6
sg7
I0
sa(dp38
g4
S'Encinas'
p39
sg6
F14.0
sg7
I0
sa(dp40
g4
S'Favre'
p41
sg6
F44.8
sg7
I0
sa(dp42
g4
S'Fricard'
p43
sg6
F-17.6
sg7
I0
sa(dp44
g4
S'Gannier'
p45
sg6
F11.2
sg7
I0
sa(dp46
g4
S'Gardan'
p47
sg6
F7.6
sg7
I0
sa(dp48
g4
S'Gein'
p49
sg6
F-145.3
sg7
I0
sa(dp50
g4
S'Gilot'
p51
sg6
F14.0
sg7
I0
sa(dp52
g4
S'Girardet'
p53
sg6
F27.2
sg7
I0
sa(dp54
g4
S'Gomes'
p55
sg6
F-141.2
sg7
I0
sa(dp56
g4
S'Grand'
p57
sg6
F67.2
sg7
I0
sa(dp58
g4
S'Gregoire'
p59
sg6
F-119.6
sg7
I0
sa(dp60
g4
S'Grezes\nBesset'
p61
sg6
F-2.7
sg7
I0
sa(dp62
g4
S'Hebraud'
p63
sg6
F61.0
sg7
I0
sa(dp64
g4
S'Herbreteau'
p65
sg6
F-140.6
sg7
I0
sa(dp66
g4
S'Honecker'
p67
sg6
F90.0
sg7
I0
sa(dp68
g4
S'Jacquiet'
p69
sg6
F53.4
sg7
I0
sa(dp70
g4
S'Kuhlmann'
p71
sg6
F-74.4
sg7
I0
sa(dp72
g4
S'Lafaille'
p73
sg6
F57.3
sg7
I0
sa(dp74
g4
S'Laurent'
p75
sg6
F48.8
sg7
I0
sa(dp76
g4
S'Leple'
p77
sg6
F-77.9
sg7
I0
sa(dp78
g4
S'Mantion'
p79
sg6
F52.0
sg7
I0
sa(dp80
g4
S'Marcelle'
p81
sg6
F24.2
sg7
I0
sa(dp82
g4
S'Marie'
p83
sg6
F35.2
sg7
I0
sa(dp84
g4
S'Mayakas'
p85
sg6
F23.0
sg7
I0
sa(dp86
g4
S'Meillassoux'
p87
sg6
F2.0
sg7
I0
sa(dp88
g4
S'Missey'
p89
sg6
F13.6
sg7
I0
sa(dp90
g4
S'Ortet'
p91
sg6
F17.4
sg7
I0
sa(dp92
g4
S'Paillard'
p93
sg6
F213.2
sg7
I0
sa(dp94
g4
S'Pallares'
p95
sg6
F-148.0
sg7
I0
sa(dp96
g4
S'Pelopidas'
p97
sg6
F90.5
sg7
I0
sa(dp98
g4
S'Pierre'
p99
sg6
F51.8
sg7
I0
sa(dp100
g4
S'Pineau'
p101
sg6
F-72.7
sg7
I0
sa(dp102
g4
S'Pinot'
p103
sg6
F-96.8
sg7
I0
sa(dp104
g4
S'Pourquier'
p105
sg6
F75.4
sg7
I0
sa(dp106
g4
S'Schaffauser'
p107
sg6
F83.1
sg7
I0
sa(dp108
g4
S'Segard'
p109
sg6
F91.0
sg7
I0
sa(dp110
g4
S'Sochet'
p111
sg6
F10.3
sg7
I0
sa(dp112
g4
S'Soutille'
p113
sg6
F2.7
sg7
I0
sa(dp114
g4
S'Tatigne'
p115
sg6
F-29.6
sg7
I0
sa(dp116
g4
S'Thouaille'
p117
sg6
F-49.8
sg7
I0
sa(dp118
g4
S'Vasseur'
p119
sg6
F6.4
sg7
I0
sa(dp120
g4
S'Vanzande'
p121
sg6
F96.4
sg7
I0
sa(dp122
g4
S'Venard'
p123
sg6
F5.0
sg7
I0
sa(dp124
g4
S'Weber'
p125
sg6
F18.4
sg7
I0
sa(dp126
g4
S'Bellais'
p127
sg6
F3.6
sg7
I0
sa(dp128
g4
S'De Chavigny'
p129
sg6
F7.4
sg7
I0
sa(dp130
g4
S'Lebrun'
p131
sg6
F25.6
sg7
I0
sa(dp132
g4
S'Lefer'
p133
sg6
I0
sg7
I0
sa(dp134
g4
S'Gontier'
p135
sg6
F42.8
sg7
I0
sa(dp136
g4
S'Perrot'
p137
sg6
F39.8
sg7
I0
sa(dp138
g4
S'Dhalleine'
p139
sg6
I0
sg7
I0
sa(dp140
g4
S'Teremate'
p141
sg6
F21.0
sg7
I0
sa(dp142
g4
S'Auclerc'
p143
sg6
F28.0
sg7
I0
sa(dp144
g4
S'Barbe'
p145
sg6
F2.8
sg7
I0
sa(dp146
g4
S'Begoc'
p147
sg6
F4.0
sg7
I0
sa(dp148
g4
S'Bernard'
p149
sg6
I0
sg7
I0
sa(dp150
g4
S'Coterot'
p151
sg6
F9.0
sg7
I0
sa(dp152
g4
S'De Boisseson'
p153
sg6
F17.0
sg7
I0
sa(dp154
g4
S'Evrard'
p155
sg6
F14.4
sg7
I0
sa(dp156
g4
S'Franzi'
p157
sg6
I0
sg7
I0
sa(dp158
g4
S'Garrault'
p159
sg6
F10.2
sg7
I0
sa(dp160
g4
S'Glet'
p161
sg6
F4.6
sg7
I0
sa(dp162
g4
g59
sg6
F13.0
sg7
I0
sa(dp163
g4
S'Gwinner'
p164
sg6
F15.8
sg7
I0
sa(dp165
g4
S'Herrier'
p166
sg6
F13.6
sg7
I0
sa(dp167
g4
S'Jacconi'
p168
sg6
I0
sg7
I0
sa(dp169
g4
S'Kudela'
p170
sg6
I0
sg7
I0
sa(dp171
g4
S'Lefebvre'
p172
sg6
F-0.8
sg7
I1
sa(dp173
g4
S'Millet'
p174
sg6
F-9.0
sg7
I0
sa(dp175
g4
S'Persico'
p176
sg6
I0
sg7
I0
sa(dp177
g4
S'Philippe'
p178
sg6
F12.5
sg7
I0
sa(dp179
g4
S'Quervel'
p180
sg6
F6.0
sg7
I0
sa(dp181
g4
S'Stoeffel'
p182
sg6
F-0.8
sg7
I0
sa(dp183
g4
S'Tessaro'
p184
sg6
F13.0
sg7
I0
sa(dp185
g4
S'Thirion'
p186
sg6
I0
sg7
I0
sa(dp187
g4
S'Toulon'
p188
sg6
I0
sg7
I0
sa(dp189
g4
S'Wijas'
p190
sg6
F-8.8
sg7
I0
sasS'n'
p191
I93
s.