(dp0
S'pers'
p1
(lp2
(dp3
S'lst'
p4
S'Ababou'
p5
sS'px'
p6
I0
sS'solde'
p7
F1.7
sS'cns'
p8
I0
sa(dp9
g4
S'Alg\xc3\xa9ri'
p10
sg6
I0
sg7
F8.1
sg8
I0
sa(dp11
g4
S'Aniort'
p12
sg6
I0
sg7
F6.3
sg8
I0
sa(dp13
g4
S'Bonami'
p14
sg6
I0
sg7
F-11.8
sg8
I0
sa(dp15
g4
S'Borrien'
p16
sg6
I0
sg7
F89.4
sg8
I0
sa(dp17
g4
S'Bouchareissas'
p18
sg6
I0
sg7
F67.8
sg8
I0
sa(dp19
g4
S'Boulant'
p20
sg6
I0
sg7
F-0.6
sg8
I0
sa(dp21
g4
S'Burdin'
p22
sg6
I0
sg7
F5.6
sg8
I0
sa(dp23
g4
S'Chamorel'
p24
sg6
I0
sg7
F-88.6
sg8
I0
sa(dp25
g4
S'Cobo'
p26
sg6
I0
sg7
F0.2
sg8
I0
sa(dp27
g4
S'Collin'
p28
sg6
I0
sg7
F16.4
sg8
I0
sa(dp29
g4
S'Delattre'
p30
sg6
I0
sg7
F35.6
sg8
I0
sa(dp31
g4
S'Desvignes'
p32
sg6
I0
sg7
F37.2
sg8
I0
sa(dp33
g4
S'Dufourneau'
p34
sg6
I0
sg7
F2.4
sg8
I0
sa(dp35
g4
S'Duguet'
p36
sg6
I0
sg7
F325.2
sg8
I0
sa(dp37
g4
S'Duval'
p38
sg6
I0
sg7
F13.9
sg8
I0
sa(dp39
g4
S'Encinas'
p40
sg6
I0
sg7
I0
sg8
I0
sa(dp41
g4
S'Favre'
p42
sg6
I0
sg7
F33.6
sg8
I0
sa(dp43
g4
S'Fricard'
p44
sg6
I0
sg7
F-17.6
sg8
I0
sa(dp45
g4
S'Gannier'
p46
sg6
I0
sg7
F0.8
sg8
I0
sa(dp47
g4
S'Gardan'
p48
sg6
I0
sg7
F93.2
sg8
I0
sa(dp49
g4
S'Gein'
p50
sg6
I0
sg7
F-147.7
sg8
I0
sa(dp51
g4
S'Gilot'
p52
sg6
I0
sg7
F14.0
sg8
I0
sa(dp53
g4
S'Girardet'
p54
sg6
I0
sg7
F39.2
sg8
I0
sa(dp55
g4
S'Gomes'
p56
sg6
I0
sg7
F26.8
sg8
I0
sa(dp57
g4
S'Grand'
p58
sg6
I0
sg7
F44.6
sg8
I0
sa(dp59
g4
S'Gregoire'
p60
sg6
I0
sg7
F14.8
sg8
I0
sa(dp61
g4
S'Grezes-Besset'
p62
sg6
I0
sg7
F4.5
sg8
I0
sa(dp63
g4
S'Hebraud'
p64
sg6
I0
sg7
F50.2
sg8
I0
sa(dp65
g4
S'Herbreteau'
p66
sg6
I0
sg7
F-145.6
sg8
I0
sa(dp67
g4
S'Honecker'
p68
sg6
I0
sg7
F75.6
sg8
I0
sa(dp69
g4
S'Jacquiet'
p70
sg6
I0
sg7
F44.1
sg8
I0
sa(dp71
g4
S'Kuhlmann'
p72
sg6
I0
sg7
F52.4
sg8
I0
sa(dp73
g4
S'Lafaille'
p74
sg6
I0
sg7
F54.9
sg8
I0
sa(dp75
g4
S'Laurent'
p76
sg6
I0
sg7
F9.4
sg8
I0
sa(dp77
g4
S'Leple'
p78
sg6
I0
sg7
F6.0
sg8
I0
sa(dp79
g4
S'Mantion'
p80
sg6
I0
sg7
F48.0
sg8
I0
sa(dp81
g4
S'Marcelle'
p82
sg6
I0
sg7
F9.6
sg8
I0
sa(dp83
g4
S'Marie'
p84
sg6
I0
sg7
F21.4
sg8
I0
sa(dp85
g4
S'Mayakas'
p86
sg6
I0
sg7
F3.6
sg8
I0
sa(dp87
g4
S'Meillassoux'
p88
sg6
I0
sg7
F-8.1
sg8
I0
sa(dp89
g4
S'Missey'
p90
sg6
I0
sg7
F8.6
sg8
I0
sa(dp91
g4
S'Ortet'
p92
sg6
I0
sg7
F-11.4
sg8
I0
sa(dp93
g4
S'Paillard'
p94
sg6
I0
sg7
F186.6
sg8
I0
sa(dp95
g4
S'Pallares'
p96
sg6
I0
sg7
F-11.7
sg8
I0
sa(dp97
g4
S'Pelopidas'
p98
sg6
I0
sg7
F56.7
sg8
I0
sa(dp99
g4
S'Pierre'
p100
sg6
I0
sg7
F30.4
sg8
I0
sa(dp101
g4
S'Pineau'
p102
sg6
I0
sg7
F53.5
sg8
I0
sa(dp103
g4
S'Pinot'
p104
sg6
I0
sg7
F3.7
sg8
I0
sa(dp105
g4
S'Pourquier'
p106
sg6
I0
sg7
F57.8
sg8
I0
sa(dp107
g4
S'Schaffauser'
p108
sg6
I0
sg7
F490.0
sg8
I0
sa(dp109
g4
S'Segard'
p110
sg6
I0
sg7
F83.6
sg8
I0
sa(dp111
g4
S'Sochet'
p112
sg6
I0
sg7
F-3.3
sg8
I0
sa(dp113
g4
S'Soutille'
p114
sg6
I0
sg7
F18.6
sg8
I0
sa(dp115
g4
S'Tatigne'
p116
sg6
I0
sg7
F48.8
sg8
I0
sa(dp117
g4
S'Thouaille'
p118
sg6
I0
sg7
F39.0
sg8
I0
sa(dp119
g4
S'Vasseur'
p120
sg6
I0
sg7
F-1.0
sg8
I0
sa(dp121
g4
S'Vanzande'
p122
sg6
I0
sg7
F88.1
sg8
I0
sa(dp123
g4
S'Venard'
p124
sg6
I0
sg7
F28.4
sg8
I0
sa(dp125
g4
S'Weber'
p126
sg6
I0
sg7
F69.6
sg8
I0
sa(dp127
g4
S'Bellais'
p128
sg6
I0
sg7
F2.0
sg8
I0
sa(dp129
g4
S'De Chavigny'
p130
sg6
I0
sg7
F7.4
sg8
I0
sa(dp131
g4
S'Lebrun'
p132
sg6
I0
sg7
F24.8
sg8
I0
sa(dp133
g4
S'Gontier'
p134
sg6
I0
sg7
F41.0
sg8
I0
sa(dp135
g4
S'Perrot'
p136
sg6
I0
sg7
F35.6
sg8
I0
sa(dp137
g4
S'Dhalleine'
p138
sg6
I0
sg7
F1.8
sg8
I0
sa(dp139
g4
S'Teremate'
p140
sg6
I0
sg7
F21.0
sg8
I0
sa(dp141
g4
S'Auclerc'
p142
sg6
I0
sg7
F28.0
sg8
I0
sa(dp143
g4
S'Barbe'
p144
sg6
I0
sg7
F-7.9
sg8
I0
sa(dp145
g4
S'Begoc'
p146
sg6
I0
sg7
F8.2
sg8
I0
sa(dp147
g4
S'Bernard'
p148
sg6
I0
sg7
I0
sg8
I0
sa(dp149
g4
S'Coterot'
p150
sg6
I0
sg7
F9.0
sg8
I0
sa(dp151
g4
S'De Boisseson'
p152
sg6
I0
sg7
F17.0
sg8
I0
sa(dp153
g4
S'Evrard'
p154
sg6
I0
sg7
F14.4
sg8
I0
sa(dp155
g4
S'Garrault'
p156
sg6
I0
sg7
F10.2
sg8
I0
sa(dp157
g4
S'Glet'
p158
sg6
I0
sg7
F4.6
sg8
I0
sa(dp159
g4
S'Gregoire 2'
p160
sg6
I0
sg7
F13.0
sg8
I0
sa(dp161
g4
S'Gwinner'
p162
sg6
I0
sg7
F15.8
sg8
I0
sa(dp163
g4
S'Herrier'
p164
sg6
I0
sg7
F13.6
sg8
I0
sa(dp165
g4
S'Millet'
p166
sg6
I0
sg7
F-9.0
sg8
I0
sa(dp167
g4
S'Philippe'
p168
sg6
I0
sg7
F12.5
sg8
I0
sa(dp169
g4
S'Quervel'
p170
sg6
I0
sg7
F6.0
sg8
I0
sa(dp171
g4
S'Stoeffel'
p172
sg6
I0
sg7
F-0.8
sg8
I0
sa(dp173
g4
S'Tessaro'
p174
sg6
I0
sg7
F13.0
sg8
I0
sa(dp175
g4
S'Wijas'
p176
sg6
I0
sg7
F-8.8
sg8
I0
sa(dp177
g4
S'Cordonnier'
p178
sg6
I0
sg7
F-16.7
sg8
I0
sa(dp179
g4
S'Ren'
p180
sg6
I0
sg7
F-18.7
sg8
I0
sa(dp181
g4
S'Dauphin'
p182
sg6
I0
sg7
F20.0
sg8
I0
sa(dp183
g4
S'Corinne'
p184
sg6
I0
sg7
F-2.0
sg8
I0
sa(dp185
g4
S'Benisty'
p186
sg6
I0
sg7
F-9.6
sg8
I0
sasS'n'
p187
I90
s.